; Function Attrs: mustprogress uwtable
define dso_local void @_ZN4absl4Cord9InlineRep11PrependTreeEPNS_13cord_internal7CordRepENS2_18CordzUpdateTracker16MethodIdentifierE(ptr noundef nonnull align 8 dereferenceable(16) %0, ptr noundef %1, i32 noundef %2) local_unnamed_addr #3 align 2 {
  %4 = load i8, ptr %0, align 8, !tbaa !13
  %5 = and i8 %4, 1
  %.not = icmp eq i8 %5, 0
  br i1 %.not, label %7, label %6

6:                                                ; preds = %3
  tail call void @_ZN4absl4Cord9InlineRep17PrependTreeToTreeEPNS_13cord_internal7CordRepENS2_18CordzUpdateTracker16MethodIdentifierE(ptr noundef nonnull align 8 dereferenceable(16) %0, ptr noundef %1, i32 noundef %2)
  br label %8

7:                                                ; preds = %3
  tail call void @_ZN4absl4Cord9InlineRep20PrependTreeToInlinedEPNS_13cord_internal7CordRepENS2_18CordzUpdateTracker16MethodIdentifierE(ptr noundef nonnull align 8 dereferenceable(16) %0, ptr noundef %1, i32 noundef %2)
  br label %8

8:                                                ; preds = %7, %6
  ret void
}